; Function Attrs: nofree norecurse nosync nounwind memory(read, inaccessiblemem: none) uwtable
define i32 @Ssw_ManCountEquivs(ptr noundef readonly captures(none) %0) local_unnamed_addr #6 {
  %2 = getelementptr inbounds nuw i8, ptr %0, i64 16
  %3 = load ptr, ptr %2, align 8, !tbaa !19
  %4 = getelementptr inbounds nuw i8, ptr %3, i64 32
  %5 = load ptr, ptr %4, align 8, !tbaa !23
  %6 = getelementptr i8, ptr %5, i64 4
  %.val = load i32, ptr %6, align 4, !tbaa !31
  %7 = icmp sgt i32 %.val, 0
  br i1 %7, label %.lr.ph, label %.critedge

.lr.ph:                                           ; preds = %1
  %8 = getelementptr i8, ptr %5, i64 8
  %.val11 = load ptr, ptr %8, align 8, !tbaa !35
  %9 = getelementptr i8, ptr %3, i64 256
  %wide.trip.count = zext nneg i32 %.val to i64
  br label %10

10:                                               ; preds = %.lr.ph, %25
  %indvars.iv = phi i64 [ 0, %.lr.ph ], [ %indvars.iv.next, %25 ]
  %.014 = phi i32 [ 0, %.lr.ph ], [ %.1, %25 ]
  %11 = getelementptr inbounds nuw ptr, ptr %.val11, i64 %indvars.iv
  %12 = load ptr, ptr %11, align 8, !tbaa !50
  %13 = icmp eq ptr %12, null
  br i1 %13, label %25, label %14

14:                                               ; preds = %10
  %.val12 = load ptr, ptr %9, align 8, !tbaa !51
  %.not.i = icmp eq ptr %.val12, null
  br i1 %.not.i, label %Aig_ObjRepr.exit, label %15

15:                                               ; preds = %14
  %16 = getelementptr inbounds nuw i8, ptr %12, i64 36
  %17 = load i32, ptr %16, align 4, !tbaa !52
  %18 = sext i32 %17 to i64
  %19 = getelementptr inbounds ptr, ptr %.val12, i64 %18
  %20 = load ptr, ptr %19, align 8, !tbaa !53
  %21 = icmp ne ptr %20, null
  %22 = zext i1 %21 to i32
  br label %Aig_ObjRepr.exit

Aig_ObjRepr.exit:                                 ; preds = %14, %15
  %23 = phi i32 [ %22, %15 ], [ 0, %14 ]
  %24 = add nsw i32 %23, %.014
  br label %25

25:                                               ; preds = %Aig_ObjRepr.exit, %10
  %.1 = phi i32 [ %.014, %10 ], [ %24, %Aig_ObjRepr.exit ]
  %indvars.iv.next = add nuw nsw i64 %indvars.iv, 1
  %exitcond.not = icmp eq i64 %indvars.iv.next, %wide.trip.count
  br i1 %exitcond.not, label %.critedge, label %10, !llvm.loop !54

.critedge:                                        ; preds = %25, %1
  %.0.lcssa = phi i32 [ 0, %1 ], [ %.1, %25 ]
  ret i32 %.0.lcssa
}